target datalayout = "e-m:e-p270:32:32-p271:32:32-p272:64:64-i64:64-i128:128-f80:128-n8:16:32:64-S128"
target triple = "x86_64-pc-linux-gnu"

%"struct.std::array.40" = type { [28 x %"struct.std::array.41"] }
%"struct.std::array.41" = type { [28 x %"struct.std::array.42"] }
%"struct.std::array.42" = type { [7 x %"struct.std::array.43"] }
%"struct.std::array.43" = type { [2 x double] }
%"struct.open_spiel::tiny_bridge::TinyBridgeAuctionState::AuctionState" = type { i64, i32, i32, i32 }

@_ZZN10open_spiel11tiny_bridge8Score_2pEllRKNS0_22TinyBridgeAuctionState12AuctionStateEE13scoring_table = internal global %"struct.std::array.40" zeroinitializer, align 8
@_ZGVZN10open_spiel11tiny_bridge8Score_2pEllRKNS0_22TinyBridgeAuctionState12AuctionStateEE13scoring_table = internal global i64 0, align 8

; Function Attrs: mustprogress nounwind uwtable
define linkonce_odr noundef nonnull align 8 dereferenceable(8) ptr @_ZNSt14__array_traitsIdLm2EE6_S_refERA2_Kdm(ptr noundef nonnull align 8 dereferenceable(16) %0, i64 noundef %1) #5 comdat align 2 {
  %3 = alloca ptr, align 8
  %4 = alloca i64, align 8
  store ptr %0, ptr %3, align 8
  store i64 %1, ptr %4, align 8
  %5 = load ptr, ptr %3, align 8
  %6 = load i64, ptr %4, align 8
  %7 = getelementptr inbounds [2 x double], ptr %5, i64 0, i64 %6
  ret ptr %7
}

; Function Attrs: mustprogress nounwind uwtable
define linkonce_odr noundef nonnull align 8 dereferenceable(16) ptr @_ZNSt14__array_traitsISt5arrayIdLm2EELm7EE6_S_refERA7_KS1_m(ptr noundef nonnull align 8 dereferenceable(112) %0, i64 noundef %1) #5 comdat align 2 {
  %3 = alloca ptr, align 8
  %4 = alloca i64, align 8
  store ptr %0, ptr %3, align 8
  store i64 %1, ptr %4, align 8
  %5 = load ptr, ptr %3, align 8
  %6 = load i64, ptr %4, align 8
  %7 = getelementptr inbounds [7 x %"struct.std::array.43"], ptr %5, i64 0, i64 %6
  ret ptr %7
}

; Function Attrs: mustprogress nounwind uwtable
define linkonce_odr noundef nonnull align 8 dereferenceable(112) ptr @_ZNSt14__array_traitsISt5arrayIS0_IdLm2EELm7EELm28EE6_S_refERA28_KS2_m(ptr noundef nonnull align 8 dereferenceable(3136) %0, i64 noundef %1) #5 comdat align 2 {
  %3 = alloca ptr, align 8
  %4 = alloca i64, align 8
  store ptr %0, ptr %3, align 8
  store i64 %1, ptr %4, align 8
  %5 = load ptr, ptr %3, align 8
  %6 = load i64, ptr %4, align 8
  %7 = getelementptr inbounds [28 x %"struct.std::array.42"], ptr %5, i64 0, i64 %6
  ret ptr %7
}

; Function Attrs: mustprogress nounwind uwtable
define linkonce_odr noundef nonnull align 8 dereferenceable(3136) ptr @_ZNSt14__array_traitsISt5arrayIS0_IS0_IdLm2EELm7EELm28EELm28EE6_S_refERA28_KS3_m(ptr noundef nonnull align 8 dereferenceable(87808) %0, i64 noundef %1) #5 comdat align 2 {
  %3 = alloca ptr, align 8
  %4 = alloca i64, align 8
  store ptr %0, ptr %3, align 8
  store i64 %1, ptr %4, align 8
  %5 = load ptr, ptr %3, align 8
  %6 = load i64, ptr %4, align 8
  %7 = getelementptr inbounds [28 x %"struct.std::array.41"], ptr %5, i64 0, i64 %6
  ret ptr %7
}

; Function Attrs: mustprogress nounwind uwtable
define linkonce_odr noundef nonnull align 8 dereferenceable(8) ptr @_ZNKSt5arrayIdLm2EEixEm(ptr noundef nonnull align 8 dereferenceable(16) %0, i64 noundef %1) #5 comdat align 2 {
  %3 = alloca ptr, align 8
  %4 = alloca i64, align 8
  store ptr %0, ptr %3, align 8
  store i64 %1, ptr %4, align 8
  %5 = load ptr, ptr %3, align 8
  %6 = getelementptr inbounds nuw %"struct.std::array.43", ptr %5, i32 0, i32 0
  %7 = load i64, ptr %4, align 8
  %8 = call noundef nonnull align 8 dereferenceable(8) ptr @_ZNSt14__array_traitsIdLm2EE6_S_refERA2_Kdm(ptr noundef nonnull align 8 dereferenceable(16) %6, i64 noundef %7) #3
  ret ptr %8
}

; Function Attrs: mustprogress nounwind uwtable
define linkonce_odr noundef nonnull align 8 dereferenceable(16) ptr @_ZNKSt5arrayIS_IdLm2EELm7EEixEm(ptr noundef nonnull align 8 dereferenceable(112) %0, i64 noundef %1) #5 comdat align 2 {
  %3 = alloca ptr, align 8
  %4 = alloca i64, align 8
  store ptr %0, ptr %3, align 8
  store i64 %1, ptr %4, align 8
  %5 = load ptr, ptr %3, align 8
  %6 = getelementptr inbounds nuw %"struct.std::array.42", ptr %5, i32 0, i32 0
  %7 = load i64, ptr %4, align 8
  %8 = call noundef nonnull align 8 dereferenceable(16) ptr @_ZNSt14__array_traitsISt5arrayIdLm2EELm7EE6_S_refERA7_KS1_m(ptr noundef nonnull align 8 dereferenceable(112) %6, i64 noundef %7) #3
  ret ptr %8
}

; Function Attrs: mustprogress nounwind uwtable
define linkonce_odr noundef nonnull align 8 dereferenceable(112) ptr @_ZNKSt5arrayIS_IS_IdLm2EELm7EELm28EEixEm(ptr noundef nonnull align 8 dereferenceable(3136) %0, i64 noundef %1) #5 comdat align 2 {
  %3 = alloca ptr, align 8
  %4 = alloca i64, align 8
  store ptr %0, ptr %3, align 8
  store i64 %1, ptr %4, align 8
  %5 = load ptr, ptr %3, align 8
  %6 = getelementptr inbounds nuw %"struct.std::array.41", ptr %5, i32 0, i32 0
  %7 = load i64, ptr %4, align 8
  %8 = call noundef nonnull align 8 dereferenceable(112) ptr @_ZNSt14__array_traitsISt5arrayIS0_IdLm2EELm7EELm28EE6_S_refERA28_KS2_m(ptr noundef nonnull align 8 dereferenceable(3136) %6, i64 noundef %7) #3
  ret ptr %8
}

; Function Attrs: mustprogress nounwind uwtable
define linkonce_odr noundef nonnull align 8 dereferenceable(3136) ptr @_ZNKSt5arrayIS_IS_IS_IdLm2EELm7EELm28EELm28EEixEm(ptr noundef nonnull align 8 dereferenceable(87808) %0, i64 noundef %1) #5 comdat align 2 {
  %3 = alloca ptr, align 8
  %4 = alloca i64, align 8
  store ptr %0, ptr %3, align 8
  store i64 %1, ptr %4, align 8
  %5 = load ptr, ptr %3, align 8
  %6 = getelementptr inbounds nuw %"struct.std::array.40", ptr %5, i32 0, i32 0
  %7 = load i64, ptr %4, align 8
  %8 = call noundef nonnull align 8 dereferenceable(3136) ptr @_ZNSt14__array_traitsISt5arrayIS0_IS0_IdLm2EELm7EELm28EELm28EE6_S_refERA28_KS3_m(ptr noundef nonnull align 8 dereferenceable(87808) %6, i64 noundef %7) #3
  ret ptr %8
}

; Function Attrs: mustprogress uwtable
define noundef double @_ZN10open_spiel11tiny_bridge8Score_2pEllRKNS0_22TinyBridgeAuctionState12AuctionStateE(i64 noundef %0, i64 noundef %1, ptr noundef nonnull align 8 dereferenceable(24) %2) #4 personality ptr @__gxx_personality_v0 {
  %4 = alloca double, align 8
  %5 = alloca i64, align 8
  %6 = alloca i64, align 8
  %7 = alloca ptr, align 8
  %8 = alloca ptr, align 8
  %9 = alloca i32, align 4
  %10 = alloca double, align 8
  store i64 %0, ptr %5, align 8
  store i64 %1, ptr %6, align 8
  store ptr %2, ptr %7, align 8
  %11 = load ptr, ptr %7, align 8
  %12 = getelementptr inbounds nuw %"struct.open_spiel::tiny_bridge::TinyBridgeAuctionState::AuctionState", ptr %11, i32 0, i32 0
  %13 = load i64, ptr %12, align 8
  %14 = icmp eq i64 %13, 0
  br i1 %14, label %15, label %16

15:                                               ; preds = %3
  store double 0.000000e+00, ptr %4, align 8
  br label %45

16:                                               ; preds = %3
  %17 = load atomic i8, ptr @_ZGVZN10open_spiel11tiny_bridge8Score_2pEllRKNS0_22TinyBridgeAuctionState12AuctionStateEE13scoring_table acquire, align 8
  %18 = icmp eq i8 %17, 0
  br i1 %18, label %19, label %24, !prof !15

19:                                               ; preds = %16
  %20 = call i32 @__cxa_guard_acquire(ptr @_ZGVZN10open_spiel11tiny_bridge8Score_2pEllRKNS0_22TinyBridgeAuctionState12AuctionStateEE13scoring_table) #3
  %21 = icmp ne i32 %20, 0
  br i1 %21, label %22, label %24

22:                                               ; preds = %19
  invoke void @_ZN10open_spiel11tiny_bridge10MakeScoresEv(ptr dead_on_unwind writable sret(%"struct.std::array.40") align 8 @_ZZN10open_spiel11tiny_bridge8Score_2pEllRKNS0_22TinyBridgeAuctionState12AuctionStateEE13scoring_table)
          to label %23 unwind label %41

23:                                               ; preds = %22
  call void @__cxa_guard_release(ptr @_ZGVZN10open_spiel11tiny_bridge8Score_2pEllRKNS0_22TinyBridgeAuctionState12AuctionStateEE13scoring_table) #3
  br label %24

24:                                               ; preds = %23, %19, %16
  %25 = load i64, ptr %5, align 8
  %26 = call noundef nonnull align 8 dereferenceable(3136) ptr @_ZNKSt5arrayIS_IS_IS_IdLm2EELm7EELm28EELm28EEixEm(ptr noundef nonnull align 8 dereferenceable(87808) @_ZZN10open_spiel11tiny_bridge8Score_2pEllRKNS0_22TinyBridgeAuctionState12AuctionStateEE13scoring_table, i64 noundef %25) #3
  %27 = load i64, ptr %6, align 8
  %28 = call noundef nonnull align 8 dereferenceable(112) ptr @_ZNKSt5arrayIS_IS_IdLm2EELm7EELm28EEixEm(ptr noundef nonnull align 8 dereferenceable(3136) %26, i64 noundef %27) #3
  %29 = load ptr, ptr %7, align 8
  %30 = getelementptr inbounds nuw %"struct.open_spiel::tiny_bridge::TinyBridgeAuctionState::AuctionState", ptr %29, i32 0, i32 0
  %31 = load i64, ptr %30, align 8
  %32 = call noundef nonnull align 8 dereferenceable(16) ptr @_ZNKSt5arrayIS_IdLm2EELm7EEixEm(ptr noundef nonnull align 8 dereferenceable(112) %28, i64 noundef %31) #3
  %33 = load ptr, ptr %7, align 8
  %34 = getelementptr inbounds nuw %"struct.open_spiel::tiny_bridge::TinyBridgeAuctionState::AuctionState", ptr %33, i32 0, i32 1
  %35 = load i32, ptr %34, align 8
  %36 = sdiv i32 %35, 2
  %37 = sext i32 %36 to i64
  %38 = call noundef nonnull align 8 dereferenceable(8) ptr @_ZNKSt5arrayIdLm2EEixEm(ptr noundef nonnull align 8 dereferenceable(16) %32, i64 noundef %37) #3
  %39 = load double, ptr %38, align 8
  store double %39, ptr %10, align 8
  %40 = load double, ptr %10, align 8
  store double %40, ptr %4, align 8
  br label %45

41:                                               ; preds = %22
  %42 = landingpad { ptr, i32 }
          cleanup
  %43 = extractvalue { ptr, i32 } %42, 0
  store ptr %43, ptr %8, align 8
  %44 = extractvalue { ptr, i32 } %42, 1
  store i32 %44, ptr %9, align 4
  call void @__cxa_guard_abort(ptr @_ZGVZN10open_spiel11tiny_bridge8Score_2pEllRKNS0_22TinyBridgeAuctionState12AuctionStateEE13scoring_table) #3
  br label %47

45:                                               ; preds = %24, %15
  %46 = load double, ptr %4, align 8
  ret double %46

47:                                               ; preds = %41
  %48 = load ptr, ptr %8, align 8
  %49 = load i32, ptr %9, align 4
  %50 = insertvalue { ptr, i32 } poison, ptr %48, 0
  %51 = insertvalue { ptr, i32 } %50, i32 %49, 1
  resume { ptr, i32 } %51
}