; Function Attrs: mustprogress uwtable
define noundef double @_ZN10open_spiel11tiny_bridge8Score_2pEllRKNS0_22TinyBridgeAuctionState12AuctionStateE(i64 noundef %0, i64 noundef %1, ptr nocapture noundef nonnull readonly align 8 dereferenceable(24) %2) local_unnamed_addr #3 personality ptr @__gxx_personality_v0 {
  %4 = load i64, ptr %2, align 8
  %5 = icmp eq i64 %4, 0
  br i1 %5, label %26, label %6

6:                                                ; preds = %3
  %7 = load atomic i8, ptr @_ZGVZN10open_spiel11tiny_bridge8Score_2pEllRKNS0_22TinyBridgeAuctionState12AuctionStateEE13scoring_table acquire, align 8
  %8 = icmp eq i8 %7, 0
  br i1 %8, label %9, label %13, !prof !24

9:                                                ; preds = %6
  %10 = tail call i32 @__cxa_guard_acquire(ptr nonnull @_ZGVZN10open_spiel11tiny_bridge8Score_2pEllRKNS0_22TinyBridgeAuctionState12AuctionStateEE13scoring_table) #27
  %.not = icmp eq i32 %10, 0
  br i1 %.not, label %13, label %11

11:                                               ; preds = %9
  invoke void @_ZN10open_spiel11tiny_bridge10MakeScoresEv(ptr dead_on_unwind nonnull writable sret(%"struct.std::array.40") align 8 @_ZZN10open_spiel11tiny_bridge8Score_2pEllRKNS0_22TinyBridgeAuctionState12AuctionStateEE13scoring_table)
          to label %12 unwind label %24

12:                                               ; preds = %11
  tail call void @__cxa_guard_release(ptr nonnull @_ZGVZN10open_spiel11tiny_bridge8Score_2pEllRKNS0_22TinyBridgeAuctionState12AuctionStateEE13scoring_table) #27
  br label %13

13:                                               ; preds = %12, %9, %6
  %14 = getelementptr inbounds [28 x %"struct.std::array.41"], ptr @_ZZN10open_spiel11tiny_bridge8Score_2pEllRKNS0_22TinyBridgeAuctionState12AuctionStateEE13scoring_table, i64 0, i64 %0
  %15 = getelementptr inbounds [28 x %"struct.std::array.42"], ptr %14, i64 0, i64 %1
  %16 = load i64, ptr %2, align 8
  %17 = getelementptr inbounds [7 x %"struct.std::array.43"], ptr %15, i64 0, i64 %16
  %18 = getelementptr inbounds nuw i8, ptr %2, i64 8
  %19 = load i32, ptr %18, align 8
  %20 = sdiv i32 %19, 2
  %21 = sext i32 %20 to i64
  %22 = getelementptr inbounds [2 x double], ptr %17, i64 0, i64 %21
  %23 = load double, ptr %22, align 8
  br label %26

24:                                               ; preds = %11
  %25 = landingpad { ptr, i32 }
          cleanup
  tail call void @__cxa_guard_abort(ptr nonnull @_ZGVZN10open_spiel11tiny_bridge8Score_2pEllRKNS0_22TinyBridgeAuctionState12AuctionStateEE13scoring_table) #27
  resume { ptr, i32 } %25

26:                                               ; preds = %3, %13
  %.0 = phi double [ %23, %13 ], [ 0.000000e+00, %3 ]
  ret double %.0
}